#include <math.h>
#include <stdio.h>
#include <stdlib.h>
#include <string.h>

int main()
{int i,m,n,ii,jj,l,t;
int s[10002]={0};
int *k=s;
int sum=0;
scanf("%d",&jj);
for(i=1;i<=jj;i++)
{ scanf("%d %d",&m,&n);
   t=m*n;
   for(ii=1;ii<=t;ii++)
     {k=k+1;
   scanf("%d",k);
	   if(ii<=n||ii>(m-1)*n||ii%n==1||ii%n==0)
		   sum=sum+*k;
   }
   printf("%d\n",sum);
   sum=0;
   k=s;

}
return 0;
}
