; ModuleID = '6/1986.c'
source_filename = "6/1986.c"
target datalayout = "e-m:e-p270:32:32-p271:32:32-p272:64:64-i64:64-f80:128-n8:16:32:64-S128"
target triple = "x86_64-pc-linux-gnu"

@.str = private unnamed_addr constant [3 x i8] c"%d\00", align 1
@.str.1 = private unnamed_addr constant [6 x i8] c"%d %d\00", align 1
@.str.2 = private unnamed_addr constant [4 x i8] c"%d\0A\00", align 1

; Function Attrs: noinline nounwind uwtable
define dso_local i32 @main() #0 {
  %1 = alloca i32, align 4
  %2 = alloca i32, align 4
  %3 = alloca i32, align 4
  %4 = alloca i32, align 4
  %5 = alloca i32, align 4
  %6 = alloca i32, align 4
  %7 = alloca i32, align 4
  %8 = alloca i32, align 4
  %9 = alloca [10002 x i32], align 16
  %10 = alloca i32*, align 8
  %11 = alloca i32, align 4
  store i32 0, i32* %1, align 4
  %12 = bitcast [10002 x i32]* %9 to i8*
  call void @llvm.memset.p0i8.i64(i8* align 16 %12, i8 0, i64 40008, i1 false)
  %13 = getelementptr inbounds [10002 x i32], [10002 x i32]* %9, i64 0, i64 0
  store i32* %13, i32** %10, align 8
  store i32 0, i32* %11, align 4
  %14 = call i32 (i8*, ...) @__isoc99_scanf(i8* getelementptr inbounds ([3 x i8], [3 x i8]* @.str, i64 0, i64 0), i32* %6)
  store i32 1, i32* %2, align 4
  br label %15

15:                                               ; preds = %66, %0
  %16 = load i32, i32* %2, align 4
  %17 = load i32, i32* %6, align 4
  %18 = icmp sle i32 %16, %17
  br i1 %18, label %19, label %69

19:                                               ; preds = %15
  %20 = call i32 (i8*, ...) @__isoc99_scanf(i8* getelementptr inbounds ([6 x i8], [6 x i8]* @.str.1, i64 0, i64 0), i32* %3, i32* %4)
  %21 = load i32, i32* %3, align 4
  %22 = load i32, i32* %4, align 4
  %23 = mul nsw i32 %21, %22
  store i32 %23, i32* %8, align 4
  store i32 1, i32* %5, align 4
  br label %24

24:                                               ; preds = %59, %19
  %25 = load i32, i32* %5, align 4
  %26 = load i32, i32* %8, align 4
  %27 = icmp sle i32 %25, %26
  br i1 %27, label %28, label %62

28:                                               ; preds = %24
  %29 = load i32*, i32** %10, align 8
  %30 = getelementptr inbounds i32, i32* %29, i64 1
  store i32* %30, i32** %10, align 8
  %31 = load i32*, i32** %10, align 8
  %32 = call i32 (i8*, ...) @__isoc99_scanf(i8* getelementptr inbounds ([3 x i8], [3 x i8]* @.str, i64 0, i64 0), i32* %31)
  %33 = load i32, i32* %5, align 4
  %34 = load i32, i32* %4, align 4
  %35 = icmp sle i32 %33, %34
  br i1 %35, label %53, label %36

36:                                               ; preds = %28
  %37 = load i32, i32* %5, align 4
  %38 = load i32, i32* %3, align 4
  %39 = sub nsw i32 %38, 1
  %40 = load i32, i32* %4, align 4
  %41 = mul nsw i32 %39, %40
  %42 = icmp sgt i32 %37, %41
  br i1 %42, label %53, label %43

43:                                               ; preds = %36
  %44 = load i32, i32* %5, align 4
  %45 = load i32, i32* %4, align 4
  %46 = srem i32 %44, %45
  %47 = icmp eq i32 %46, 1
  br i1 %47, label %53, label %48

48:                                               ; preds = %43
  %49 = load i32, i32* %5, align 4
  %50 = load i32, i32* %4, align 4
  %51 = srem i32 %49, %50
  %52 = icmp eq i32 %51, 0
  br i1 %52, label %53, label %58

53:                                               ; preds = %48, %43, %36, %28
  %54 = load i32, i32* %11, align 4
  %55 = load i32*, i32** %10, align 8
  %56 = load i32, i32* %55, align 4
  %57 = add nsw i32 %54, %56
  store i32 %57, i32* %11, align 4
  br label %58

58:                                               ; preds = %53, %48
  br label %59

59:                                               ; preds = %58
  %60 = load i32, i32* %5, align 4
  %61 = add nsw i32 %60, 1
  store i32 %61, i32* %5, align 4
  br label %24

62:                                               ; preds = %24
  %63 = load i32, i32* %11, align 4
  %64 = call i32 (i8*, ...) @printf(i8* getelementptr inbounds ([4 x i8], [4 x i8]* @.str.2, i64 0, i64 0), i32 %63)
  store i32 0, i32* %11, align 4
  %65 = getelementptr inbounds [10002 x i32], [10002 x i32]* %9, i64 0, i64 0
  store i32* %65, i32** %10, align 8
  br label %66

66:                                               ; preds = %62
  %67 = load i32, i32* %2, align 4
  %68 = add nsw i32 %67, 1
  store i32 %68, i32* %2, align 4
  br label %15

69:                                               ; preds = %15
  ret i32 0
}

; Function Attrs: argmemonly nounwind willreturn
declare void @llvm.memset.p0i8.i64(i8* nocapture writeonly, i8, i64, i1 immarg) #1

declare dso_local i32 @__isoc99_scanf(i8*, ...) #2

declare dso_local i32 @printf(i8*, ...) #2


!llvm.module.flags = !{!0}
!llvm.ident = !{!1}

!0 = !{i32 1, !"wchar_size", i32 4}
!1 = !{!"clang version 10.0.0-4ubuntu1 "}
